; ModuleID = '30/2851.c'
source_filename = "30/2851.c"
target datalayout = "e-m:e-p270:32:32-p271:32:32-p272:64:64-i64:64-f80:128-n8:16:32:64-S128"
target triple = "x86_64-pc-linux-gnu"

@.str = private unnamed_addr constant [3 x i8] c"%d\00", align 1

; Function Attrs: noinline nounwind uwtable
define dso_local i32 @main() #0 {
  %1 = alloca i32, align 4
  %2 = alloca i32, align 4
  %3 = alloca i32, align 4
  %4 = alloca i32, align 4
  %5 = alloca i32, align 4
  %6 = alloca i32, align 4
  %7 = alloca i32, align 4
  store i32 0, i32* %1, align 4
  store i32 1, i32* %2, align 4
  store i32 0, i32* %7, align 4
  %8 = call i32 (i8*, ...) @__isoc99_scanf(i8* getelementptr inbounds ([3 x i8], [3 x i8]* @.str, i64 0, i64 0), i32* %6)
  br label %9

9:                                                ; preds = %44, %41, %0
  %10 = load i32, i32* %2, align 4
  %11 = load i32, i32* %6, align 4
  %12 = icmp sle i32 %10, %11
  br i1 %12, label %13, label %52

13:                                               ; preds = %9
  %14 = load i32, i32* %2, align 4
  %15 = srem i32 %14, 10
  store i32 %15, i32* %3, align 4
  %16 = load i32, i32* %2, align 4
  %17 = srem i32 %16, 100
  %18 = load i32, i32* %3, align 4
  %19 = sub nsw i32 %17, %18
  %20 = sdiv i32 %19, 10
  store i32 %20, i32* %4, align 4
  %21 = load i32, i32* %2, align 4
  %22 = srem i32 %21, 1000
  %23 = load i32, i32* %4, align 4
  %24 = mul nsw i32 %23, 10
  %25 = sub nsw i32 %22, %24
  %26 = load i32, i32* %3, align 4
  %27 = sub nsw i32 %25, %26
  %28 = sdiv i32 %27, 100
  store i32 %28, i32* %5, align 4
  %29 = load i32, i32* %3, align 4
  %30 = icmp eq i32 %29, 7
  br i1 %30, label %41, label %31

31:                                               ; preds = %13
  %32 = load i32, i32* %4, align 4
  %33 = icmp eq i32 %32, 7
  br i1 %33, label %41, label %34

34:                                               ; preds = %31
  %35 = load i32, i32* %5, align 4
  %36 = icmp eq i32 %35, 7
  br i1 %36, label %41, label %37

37:                                               ; preds = %34
  %38 = load i32, i32* %2, align 4
  %39 = srem i32 %38, 7
  %40 = icmp eq i32 %39, 0
  br i1 %40, label %41, label %44

41:                                               ; preds = %37, %34, %31, %13
  %42 = load i32, i32* %2, align 4
  %43 = add nsw i32 %42, 1
  store i32 %43, i32* %2, align 4
  br label %9

44:                                               ; preds = %37
  %45 = load i32, i32* %7, align 4
  %46 = load i32, i32* %2, align 4
  %47 = load i32, i32* %2, align 4
  %48 = mul nsw i32 %46, %47
  %49 = add nsw i32 %45, %48
  store i32 %49, i32* %7, align 4
  %50 = load i32, i32* %2, align 4
  %51 = add nsw i32 %50, 1
  store i32 %51, i32* %2, align 4
  br label %9

52:                                               ; preds = %9
  %53 = load i32, i32* %7, align 4
  %54 = call i32 (i8*, ...) @printf(i8* getelementptr inbounds ([3 x i8], [3 x i8]* @.str, i64 0, i64 0), i32 %53)
  ret i32 0
}

declare dso_local i32 @__isoc99_scanf(i8*, ...) #1

declare dso_local i32 @printf(i8*, ...) #1


!llvm.module.flags = !{!0}
!llvm.ident = !{!1}

!0 = !{i32 1, !"wchar_size", i32 4}
!1 = !{!"clang version 10.0.0-4ubuntu1 "}
