; ModuleID = 'source-C-CXX/29/2851.c'
source_filename = "source-C-CXX/29/2851.c"
target datalayout = "e-m:e-p270:32:32-p271:32:32-p272:64:64-i64:64-f80:128-n8:16:32:64-S128"
target triple = "x86_64-pc-linux-gnu"

@.str = private unnamed_addr constant [3 x i8] c"%d\00", align 1

; Function Attrs: nofree nounwind sspstrong uwtable
define dso_local i32 @main() local_unnamed_addr #0 {
  %1 = alloca i32, align 4
  %2 = bitcast i32* %1 to i8*
  call void @llvm.lifetime.start.p0i8(i64 4, i8* nonnull %2) #4
  %3 = call i32 (i8*, ...) @__isoc99_scanf(i8* getelementptr inbounds ([3 x i8], [3 x i8]* @.str, i64 0, i64 0), i32* nonnull %1)
  %4 = load i32, i32* %1, align 4, !tbaa !5
  %5 = icmp slt i32 %4, 1
  br i1 %5, label %39, label %6

6:                                                ; preds = %0, %34
  %7 = phi i32 [ %36, %34 ], [ 0, %0 ]
  %8 = phi i32 [ %37, %34 ], [ 1, %0 ]
  %9 = call i32 @llvm.smax.i32(i32 %8, i32 %4)
  br label %10

10:                                               ; preds = %6, %31
  %11 = phi i32 [ %8, %6 ], [ %32, %31 ]
  %12 = srem i32 %11, 10
  %13 = srem i32 %11, 100
  %14 = sub nsw i32 %13, %12
  %15 = srem i32 %11, 1000
  %16 = trunc i32 %14 to i8
  %17 = srem i8 %16, 10
  %18 = sext i8 %17 to i32
  %19 = icmp eq i32 %12, 7
  %20 = add nsw i32 %14, -70
  %21 = icmp ult i32 %20, 10
  %22 = select i1 %19, i1 true, i1 %21
  %23 = add nsw i32 %15, -700
  %24 = sub nsw i32 %23, %13
  %25 = add nsw i32 %24, %18
  %26 = icmp ult i32 %25, 100
  %27 = select i1 %22, i1 true, i1 %26
  %28 = srem i32 %11, 7
  %29 = icmp eq i32 %28, 0
  %30 = select i1 %27, i1 true, i1 %29
  br i1 %30, label %31, label %34

31:                                               ; preds = %10
  %32 = add i32 %11, 1
  %33 = icmp eq i32 %11, %9
  br i1 %33, label %39, label %10, !llvm.loop !9

34:                                               ; preds = %10
  %35 = mul nsw i32 %11, %11
  %36 = add nuw nsw i32 %7, %35
  %37 = add nsw i32 %11, 1
  %38 = icmp slt i32 %11, %4
  br i1 %38, label %6, label %39, !llvm.loop !9

39:                                               ; preds = %34, %31, %0
  %40 = phi i32 [ 0, %0 ], [ %7, %31 ], [ %36, %34 ]
  %41 = call i32 (i8*, ...) @printf(i8* nonnull dereferenceable(1) getelementptr inbounds ([3 x i8], [3 x i8]* @.str, i64 0, i64 0), i32 %40)
  call void @llvm.lifetime.end.p0i8(i64 4, i8* nonnull %2) #4
  ret i32 0
}

; Function Attrs: argmemonly mustprogress nofree nosync nounwind willreturn
declare void @llvm.lifetime.start.p0i8(i64 immarg, i8* nocapture) #1

; Function Attrs: nofree nounwind
declare noundef i32 @__isoc99_scanf(i8* nocapture noundef readonly, ...) local_unnamed_addr #2

; Function Attrs: nofree nounwind
declare noundef i32 @printf(i8* nocapture noundef readonly, ...) local_unnamed_addr #2

; Function Attrs: argmemonly mustprogress nofree nosync nounwind willreturn
declare void @llvm.lifetime.end.p0i8(i64 immarg, i8* nocapture) #1

; Function Attrs: nofree nosync nounwind readnone speculatable willreturn
declare i32 @llvm.smax.i32(i32, i32) #3


!llvm.module.flags = !{!0, !1, !2, !3}
!llvm.ident = !{!4}

!0 = !{i32 1, !"wchar_size", i32 4}
!1 = !{i32 7, !"PIC Level", i32 2}
!2 = !{i32 7, !"PIE Level", i32 2}
!3 = !{i32 7, !"uwtable", i32 1}
!4 = !{!"clang version 13.0.0"}
!5 = !{!6, !6, i64 0}
!6 = !{!"int", !7, i64 0}
!7 = !{!"omnipotent char", !8, i64 0}
!8 = !{!"Simple C/C++ TBAA"}
!9 = distinct !{!9, !10}
!10 = !{!"llvm.loop.mustprogress"}
